; Function Attrs: mustprogress uwtable
define dso_local void @_ZN20cmCPackIFWRepository22WriteRepositoryUpdatesER11cmXMLWriter(ptr nocapture noundef nonnull readonly align 8 dereferenceable(328) %0, ptr noundef nonnull align 8 dereferenceable(83) %1) local_unnamed_addr #3 align 2 personality ptr @__gxx_personality_v0 {
  %3 = alloca %"class.std::__cxx11::basic_string", align 8
  %4 = alloca %"class.std::allocator", align 1
  %5 = getelementptr inbounds i8, ptr %0, i64 272
  %6 = load ptr, ptr %5, align 8
  %7 = getelementptr inbounds i8, ptr %0, i64 280
  %8 = load ptr, ptr %7, align 8
  %9 = icmp eq ptr %6, %8
  br i1 %9, label %23, label %10

10:                                               ; preds = %2
  call void @_ZNSaIcEC1Ev(ptr noundef nonnull align 1 dereferenceable(1) %4) #11
  %11 = invoke noundef ptr @_ZNSt7__cxx1112basic_stringIcSt11char_traitsIcESaIcEE13_M_local_dataEv(ptr noundef nonnull align 8 dereferenceable(32) %3)
          to label %.noexc unwind label %19

.noexc:                                           ; preds = %10
  invoke void @_ZNSt7__cxx1112basic_stringIcSt11char_traitsIcESaIcEE12_Alloc_hiderC1EPcRKS3_(ptr noundef nonnull align 8 dereferenceable(8) %3, ptr noundef %11, ptr noundef nonnull align 1 dereferenceable(1) %4)
          to label %.noexc10 unwind label %19

.noexc10:                                         ; preds = %.noexc
  invoke void @_ZNSt7__cxx1112basic_stringIcSt11char_traitsIcESaIcEE12_M_constructIPKcEEvT_S8_St20forward_iterator_tag(ptr noundef nonnull align 8 dereferenceable(32) %3, ptr noundef nonnull @.str.33, ptr noundef nonnull getelementptr inbounds ([17 x i8], ptr @.str.33, i64 0, i64 16))
          to label %_ZNSt7__cxx1112basic_stringIcSt11char_traitsIcESaIcEEC2IS3_EEPKcRKS3_.exit unwind label %12

12:                                               ; preds = %.noexc10
  %13 = landingpad { ptr, i32 }
          cleanup
  call void @_ZNSaIcED2Ev(ptr noundef nonnull align 1 dereferenceable(1) %3) #11
  br label %.body

_ZNSt7__cxx1112basic_stringIcSt11char_traitsIcESaIcEEC2IS3_EEPKcRKS3_.exit: ; preds = %.noexc10
  invoke void @_ZN11cmXMLWriter12StartElementERKNSt7__cxx1112basic_stringIcSt11char_traitsIcESaIcEEE(ptr noundef nonnull align 8 dereferenceable(83) %1, ptr noundef nonnull align 8 dereferenceable(32) %3)
          to label %14 unwind label %21

14:                                               ; preds = %_ZNSt7__cxx1112basic_stringIcSt11char_traitsIcESaIcEEC2IS3_EEPKcRKS3_.exit
  call void @_ZNSt7__cxx1112basic_stringIcSt11char_traitsIcESaIcEED1Ev(ptr noundef nonnull align 8 dereferenceable(32) %3) #11
  call void @_ZNSaIcED1Ev(ptr noundef nonnull align 1 dereferenceable(1) %4) #11
  %15 = load ptr, ptr %5, align 8
  %16 = load ptr, ptr %7, align 8
  %.not14 = icmp eq ptr %15, %16
  br i1 %.not14, label %._crit_edge, label %.lr.ph

.lr.ph:                                           ; preds = %14, %.lr.ph
  %.sroa.011.015 = phi ptr [ %18, %.lr.ph ], [ %15, %14 ]
  %17 = load ptr, ptr %.sroa.011.015, align 8
  call void @_ZNK20cmCPackIFWRepository21WriteRepositoryUpdateER11cmXMLWriter(ptr noundef nonnull align 8 dereferenceable(328) %17, ptr noundef nonnull align 8 dereferenceable(83) %1)
  %18 = getelementptr inbounds i8, ptr %.sroa.011.015, i64 8
  %.not = icmp eq ptr %18, %16
  br i1 %.not, label %._crit_edge, label %.lr.ph

19:                                               ; preds = %.noexc, %10
  %20 = landingpad { ptr, i32 }
          cleanup
  br label %.body

21:                                               ; preds = %_ZNSt7__cxx1112basic_stringIcSt11char_traitsIcESaIcEEC2IS3_EEPKcRKS3_.exit
  %22 = landingpad { ptr, i32 }
          cleanup
  call void @_ZNSt7__cxx1112basic_stringIcSt11char_traitsIcESaIcEED1Ev(ptr noundef nonnull align 8 dereferenceable(32) %3) #11
  br label %.body

.body:                                            ; preds = %19, %12, %21
  %.pn = phi { ptr, i32 } [ %22, %21 ], [ %20, %19 ], [ %13, %12 ]
  call void @_ZNSaIcED1Ev(ptr noundef nonnull align 1 dereferenceable(1) %4) #11
  resume { ptr, i32 } %.pn

._crit_edge:                                      ; preds = %.lr.ph, %14
  call void @_ZN11cmXMLWriter10EndElementEv(ptr noundef nonnull align 8 dereferenceable(83) %1)
  br label %23

23:                                               ; preds = %._crit_edge, %2
  ret void
}